(lp0
(S'cppflags'
p1
ccopy_reg
_reconstructor
p2
(cino.utils
SpaceList
p3
c__builtin__
list
p4
(lp5
S'-mmcu=atmega328p'
p6
aS'-DF_CPU=16000000L'
p7
aS'-DARDUINO=106'
p8
aS'-I/usr/share/arduino/hardware/arduino/cores/arduino'
p9
aS'-ffunction-sections'
p10
aS'-fdata-sections'
p11
aS'-g'
p12
aS'-Os'
p13
aS'-w'
p14
aS'-I/usr/share/arduino/hardware/arduino/variants/standard'
p15
aS'-I/usr/share/arduino/libraries/Servo'
p16
aS'-I/usr/share/arduino/libraries/EEPROM'
p17
aS'-I/usr/share/arduino/libraries/Wire'
p18
aS'-I/usr/share/arduino/libraries/Wire/utility'
p19
aS'-I/usr/share/arduino/hardware/arduino/cores/arduino'
p20
aS'-I/usr/share/arduino/hardware/arduino/cores/arduino/avr-libc'
p21
atp22
Rp23
tp24
a(S'cc'
p25
S'/usr/share/arduino/hardware/tools/avr/bin/avr-gcc'
p26
tp27
a(S'arduino_libraries_dir'
p28
S'/usr/share/arduino/libraries'
p29
tp30
a(S'avrdude'
p31
S'/usr/share/arduino/hardware/tools/avrdude'
p32
tp33
a(S'ar'
p34
S'/usr/share/arduino/hardware/tools/avr/bin/avr-ar'
p35
tp36
a(S'names'
p37
(dp38
S'cpp'
p39
S'%s.cpp'
p40
sS'obj'
p41
S'%s.o'
p42
sS'deps'
p43
S'%s.d'
p44
sS'lib'
p45
S'lib%s.a'
p46
stp47
a(S'ldflags'
p48
g2
(g3
g4
(lp49
g6
aS'-Wl,-Os'
p50
aS'-Wl,--gc-sections'
p51
atp52
Rp53
tp54
a(S'arduino_lib_version'
p55
g2
(cino.environment
Version
p56
c__builtin__
tuple
p57
(I1
I0
I6
tp58
tp59
Rp60
tp61
a(S'objcopy'
p62
S'/usr/share/arduino/hardware/tools/avr/bin/avr-objcopy'
p63
tp64
a(S'board_models'
p65
cino.environment
BoardModels
p66
((lp67
(lp68
S'uno'
p69
a(dp70
S'build'
p71
(dp72
S'core'
p73
S'arduino'
p74
sS'mcu'
p75
S'atmega328p'
p76
sS'f_cpu'
p77
S'16000000L'
p78
sS'variant'
p79
S'standard'
p80
ssS'bootloader'
p81
(dp82
S'extended_fuses'
p83
S'0x05'
p84
sS'high_fuses'
p85
S'0xde'
p86
sS'low_fuses'
p87
S'0xff'
p88
sS'lock_bits'
p89
S'0x0F'
p90
sS'file'
p91
S'optiboot_atmega328.hex'
p92
sS'path'
p93
S'optiboot'
p94
sS'unlock_bits'
p95
S'0x3F'
p96
ssS'upload'
p97
(dp98
S'protocol'
p99
S'arduino'
p100
sS'maximum_size'
p101
S'32256'
p102
sS'speed'
p103
S'115200'
p104
ssS'name'
p105
S'Arduino Uno'
p106
saa(lp107
S'atmega328'
p108
a(dp109
S'build'
p110
(dp111
S'core'
p112
S'arduino'
p113
sS'mcu'
p114
S'atmega328p'
p115
sS'f_cpu'
p116
S'16000000L'
p117
sS'variant'
p118
S'standard'
p119
ssS'bootloader'
p120
(dp121
S'extended_fuses'
p122
S'0x05'
p123
sS'high_fuses'
p124
S'0xDA'
p125
sS'low_fuses'
p126
S'0xFF'
p127
sS'lock_bits'
p128
S'0x0F'
p129
sS'file'
p130
S'ATmegaBOOT_168_atmega328.hex'
p131
sS'path'
p132
S'atmega'
p133
sS'unlock_bits'
p134
S'0x3F'
p135
ssS'upload'
p136
(dp137
S'protocol'
p138
S'arduino'
p139
sS'maximum_size'
p140
S'30720'
p141
sS'speed'
p142
S'57600'
p143
ssS'name'
p144
S'Arduino Duemilanove w/ ATmega328'
p145
saa(lp146
S'diecimila'
p147
a(dp148
S'build'
p149
(dp150
S'core'
p151
S'arduino'
p152
sS'mcu'
p153
S'atmega168'
p154
sS'f_cpu'
p155
S'16000000L'
p156
sS'variant'
p157
S'standard'
p158
ssS'bootloader'
p159
(dp160
S'extended_fuses'
p161
S'0x00'
p162
sS'high_fuses'
p163
S'0xdd'
p164
sS'low_fuses'
p165
S'0xff'
p166
sS'lock_bits'
p167
S'0x0F'
p168
sS'file'
p169
S'ATmegaBOOT_168_diecimila.hex'
p170
sS'path'
p171
S'atmega'
p172
sS'unlock_bits'
p173
S'0x3F'
p174
ssS'upload'
p175
(dp176
S'protocol'
p177
S'arduino'
p178
sS'maximum_size'
p179
S'14336'
p180
sS'speed'
p181
S'19200'
p182
ssS'name'
p183
S'Arduino Diecimila or Duemilanove w/ ATmega168'
p184
saa(lp185
S'nano328'
p186
a(dp187
S'build'
p188
(dp189
S'core'
p190
S'arduino'
p191
sS'mcu'
p192
S'atmega328p'
p193
sS'f_cpu'
p194
S'16000000L'
p195
sS'variant'
p196
S'eightanaloginputs'
p197
ssS'bootloader'
p198
(dp199
S'extended_fuses'
p200
S'0x05'
p201
sS'high_fuses'
p202
S'0xDA'
p203
sS'low_fuses'
p204
S'0xFF'
p205
sS'lock_bits'
p206
S'0x0F'
p207
sS'file'
p208
S'ATmegaBOOT_168_atmega328.hex'
p209
sS'path'
p210
S'atmega'
p211
sS'unlock_bits'
p212
S'0x3F'
p213
ssS'upload'
p214
(dp215
S'protocol'
p216
S'arduino'
p217
sS'maximum_size'
p218
S'30720'
p219
sS'speed'
p220
S'57600'
p221
ssS'name'
p222
S'Arduino Nano w/ ATmega328'
p223
saa(lp224
S'nano'
p225
a(dp226
S'build'
p227
(dp228
S'core'
p229
S'arduino'
p230
sS'mcu'
p231
S'atmega168'
p232
sS'f_cpu'
p233
S'16000000L'
p234
sS'variant'
p235
S'eightanaloginputs'
p236
ssS'bootloader'
p237
(dp238
S'extended_fuses'
p239
S'0x00'
p240
sS'high_fuses'
p241
S'0xdd'
p242
sS'low_fuses'
p243
S'0xff'
p244
sS'lock_bits'
p245
S'0x0F'
p246
sS'file'
p247
S'ATmegaBOOT_168_diecimila.hex'
p248
sS'path'
p249
S'atmega'
p250
sS'unlock_bits'
p251
S'0x3F'
p252
ssS'upload'
p253
(dp254
S'protocol'
p255
S'arduino'
p256
sS'maximum_size'
p257
S'14336'
p258
sS'speed'
p259
S'19200'
p260
ssS'name'
p261
S'Arduino Nano w/ ATmega168'
p262
saa(lp263
S'mega2560'
p264
a(dp265
S'build'
p266
(dp267
S'core'
p268
S'arduino'
p269
sS'mcu'
p270
S'atmega2560'
p271
sS'f_cpu'
p272
S'16000000L'
p273
sS'variant'
p274
S'mega'
p275
ssS'bootloader'
p276
(dp277
S'extended_fuses'
p278
S'0xFD'
p279
sS'high_fuses'
p280
S'0xD8'
p281
sS'low_fuses'
p282
S'0xFF'
p283
sS'lock_bits'
p284
S'0x0F'
p285
sS'file'
p286
S'stk500boot_v2_mega2560.hex'
p287
sS'path'
p288
S'stk500v2'
p289
sS'unlock_bits'
p290
S'0x3F'
p291
ssS'upload'
p292
(dp293
S'protocol'
p294
S'wiring'
p295
sS'maximum_size'
p296
S'258048'
p297
sS'speed'
p298
S'115200'
p299
ssS'name'
p300
S'Arduino Mega 2560 or Mega ADK'
p301
saa(lp302
S'mega'
p303
a(dp304
S'build'
p305
(dp306
S'core'
p307
S'arduino'
p308
sS'mcu'
p309
S'atmega1280'
p310
sS'f_cpu'
p311
S'16000000L'
p312
sS'variant'
p313
S'mega'
p314
ssS'bootloader'
p315
(dp316
S'extended_fuses'
p317
S'0xF5'
p318
sS'high_fuses'
p319
S'0xDA'
p320
sS'low_fuses'
p321
S'0xFF'
p322
sS'lock_bits'
p323
S'0x0F'
p324
sS'file'
p325
S'ATmegaBOOT_168_atmega1280.hex'
p326
sS'path'
p327
S'atmega'
p328
sS'unlock_bits'
p329
S'0x3F'
p330
ssS'upload'
p331
(dp332
S'protocol'
p333
S'arduino'
p334
sS'maximum_size'
p335
S'126976'
p336
sS'speed'
p337
S'57600'
p338
ssS'name'
p339
S'Arduino Mega (ATmega1280)'
p340
saa(lp341
S'leonardo'
p342
a(dp343
S'build'
p344
(dp345
S'core'
p346
S'arduino'
p347
sS'f_cpu'
p348
S'16000000L'
p349
sS'vid'
p350
S'0x2341'
p351
sS'pid'
p352
S'0x8036'
p353
sS'variant'
p354
S'leonardo'
p355
sS'mcu'
p356
S'atmega32u4'
p357
ssS'bootloader'
p358
(dp359
S'extended_fuses'
p360
S'0xcb'
p361
sS'high_fuses'
p362
S'0xd8'
p363
sS'low_fuses'
p364
S'0xff'
p365
sS'lock_bits'
p366
S'0x2F'
p367
sS'file'
p368
S'Caterina-Leonardo.hex'
p369
sS'path'
p370
S'caterina'
p371
sS'unlock_bits'
p372
S'0x3F'
p373
ssS'upload'
p374
(dp375
S'protocol'
p376
S'avr109'
p377
sS'maximum_size'
p378
S'28672'
p379
sS'speed'
p380
S'57600'
p381
sS'disable_flushing'
p382
S'true'
p383
ssS'name'
p384
S'Arduino Leonardo'
p385
saa(lp386
S'esplora'
p387
a(dp388
S'build'
p389
(dp390
S'core'
p391
S'arduino'
p392
sS'f_cpu'
p393
S'16000000L'
p394
sS'vid'
p395
S'0x2341'
p396
sS'pid'
p397
S'0x803C'
p398
sS'variant'
p399
S'leonardo'
p400
sS'mcu'
p401
S'atmega32u4'
p402
ssS'bootloader'
p403
(dp404
S'extended_fuses'
p405
S'0xcb'
p406
sS'high_fuses'
p407
S'0xd8'
p408
sS'low_fuses'
p409
S'0xff'
p410
sS'lock_bits'
p411
S'0x2F'
p412
sS'file'
p413
S'Caterina-Esplora.hex'
p414
sS'path'
p415
S'caterina'
p416
sS'unlock_bits'
p417
S'0x3F'
p418
ssS'upload'
p419
(dp420
S'protocol'
p421
S'avr109'
p422
sS'maximum_size'
p423
S'28672'
p424
sS'speed'
p425
S'57600'
p426
sS'disable_flushing'
p427
S'true'
p428
ssS'name'
p429
S'Arduino Esplora'
p430
saa(lp431
S'micro'
p432
a(dp433
S'build'
p434
(dp435
S'core'
p436
S'arduino'
p437
sS'f_cpu'
p438
S'16000000L'
p439
sS'vid'
p440
S'0x2341'
p441
sS'pid'
p442
S'0x8037'
p443
sS'variant'
p444
S'micro'
p445
sS'mcu'
p446
S'atmega32u4'
p447
ssS'bootloader'
p448
(dp449
S'extended_fuses'
p450
S'0xcb'
p451
sS'high_fuses'
p452
S'0xd8'
p453
sS'low_fuses'
p454
S'0xff'
p455
sS'lock_bits'
p456
S'0x2F'
p457
sS'file'
p458
S'Caterina-Micro.hex'
p459
sS'path'
p460
S'caterina'
p461
sS'unlock_bits'
p462
S'0x3F'
p463
ssS'upload'
p464
(dp465
S'protocol'
p466
S'avr109'
p467
sS'maximum_size'
p468
S'28672'
p469
sS'speed'
p470
S'57600'
p471
sS'disable_flushing'
p472
S'true'
p473
ssS'name'
p474
S'Arduino Micro'
p475
saa(lp476
S'mini328'
p477
a(dp478
S'build'
p479
(dp480
S'core'
p481
S'arduino'
p482
sS'mcu'
p483
S'atmega328p'
p484
sS'f_cpu'
p485
S'16000000L'
p486
sS'variant'
p487
S'eightanaloginputs'
p488
ssS'bootloader'
p489
(dp490
S'extended_fuses'
p491
S'0x05'
p492
sS'high_fuses'
p493
S'0xd8'
p494
sS'low_fuses'
p495
S'0xff'
p496
sS'lock_bits'
p497
S'0x0F'
p498
sS'file'
p499
S'optiboot_atmega328-Mini.hex'
p500
sS'path'
p501
S'optiboot'
p502
sS'unlock_bits'
p503
S'0x3F'
p504
ssS'upload'
p505
(dp506
S'protocol'
p507
S'arduino'
p508
sS'maximum_size'
p509
S'28672'
p510
sS'speed'
p511
S'115200'
p512
ssS'name'
p513
S'Arduino Mini w/ ATmega328'
p514
saa(lp515
S'mini'
p516
a(dp517
S'build'
p518
(dp519
S'core'
p520
S'arduino'
p521
sS'mcu'
p522
S'atmega168'
p523
sS'f_cpu'
p524
S'16000000L'
p525
sS'variant'
p526
S'eightanaloginputs'
p527
ssS'bootloader'
p528
(dp529
S'extended_fuses'
p530
S'0x00'
p531
sS'high_fuses'
p532
S'0xdd'
p533
sS'low_fuses'
p534
S'0xff'
p535
sS'lock_bits'
p536
S'0x0F'
p537
sS'file'
p538
S'ATmegaBOOT_168_ng.hex'
p539
sS'path'
p540
S'atmega'
p541
sS'unlock_bits'
p542
S'0x3F'
p543
ssS'upload'
p544
(dp545
S'protocol'
p546
S'arduino'
p547
sS'maximum_size'
p548
S'14336'
p549
sS'speed'
p550
S'19200'
p551
ssS'name'
p552
S'Arduino Mini w/ ATmega168'
p553
saa(lp554
S'ethernet'
p555
a(dp556
S'build'
p557
(dp558
S'variant'
p559
S'ethernet'
p560
sS'mcu'
p561
S'atmega328p'
p562
sS'f_cpu'
p563
S'16000000L'
p564
sS'core'
p565
S'arduino'
p566
ssS'bootloader'
p567
(dp568
S'extended_fuses'
p569
S'0x05'
p570
sS'high_fuses'
p571
S'0xde'
p572
sS'low_fuses'
p573
S'0xff'
p574
sS'lock_bits'
p575
S'0x0F'
p576
sS'file'
p577
S'optiboot_atmega328.hex'
p578
sS'path'
p579
S'optiboot'
p580
sS'unlock_bits'
p581
S'0x3F'
p582
ssS'upload'
p583
(dp584
S'protocol'
p585
S'arduino'
p586
sS'maximum_size'
p587
S'32256'
p588
sS'speed'
p589
S'115200'
p590
ssS'name'
p591
S'Arduino Ethernet'
p592
saa(lp593
S'fio'
p594
a(dp595
S'build'
p596
(dp597
S'core'
p598
S'arduino'
p599
sS'mcu'
p600
S'atmega328p'
p601
sS'f_cpu'
p602
S'8000000L'
p603
sS'variant'
p604
S'eightanaloginputs'
p605
ssS'bootloader'
p606
(dp607
S'extended_fuses'
p608
S'0x05'
p609
sS'high_fuses'
p610
S'0xDA'
p611
sS'low_fuses'
p612
S'0xFF'
p613
sS'lock_bits'
p614
S'0x0F'
p615
sS'file'
p616
S'ATmegaBOOT_168_atmega328_pro_8MHz.hex'
p617
sS'path'
p618
S'arduino:atmega'
p619
sS'unlock_bits'
p620
S'0x3F'
p621
ssS'upload'
p622
(dp623
S'protocol'
p624
S'arduino'
p625
sS'maximum_size'
p626
S'30720'
p627
sS'speed'
p628
S'57600'
p629
ssS'name'
p630
S'Arduino Fio'
p631
saa(lp632
S'bt328'
p633
a(dp634
S'build'
p635
(dp636
S'core'
p637
S'arduino'
p638
sS'mcu'
p639
S'atmega328p'
p640
sS'f_cpu'
p641
S'16000000L'
p642
sS'variant'
p643
S'eightanaloginputs'
p644
ssS'bootloader'
p645
(dp646
S'extended_fuses'
p647
S'0x05'
p648
sS'high_fuses'
p649
S'0xd8'
p650
sS'low_fuses'
p651
S'0xff'
p652
sS'lock_bits'
p653
S'0x0F'
p654
sS'file'
p655
S'ATmegaBOOT_168_atmega328_bt.hex'
p656
sS'path'
p657
S'bt'
p658
sS'unlock_bits'
p659
S'0x3F'
p660
ssS'upload'
p661
(dp662
S'protocol'
p663
S'arduino'
p664
sS'maximum_size'
p665
S'28672'
p666
sS'speed'
p667
S'19200'
p668
sS'disable_flushing'
p669
S'true'
p670
ssS'name'
p671
S'Arduino BT w/ ATmega328'
p672
saa(lp673
S'bt'
p674
a(dp675
S'build'
p676
(dp677
S'core'
p678
S'arduino'
p679
sS'mcu'
p680
S'atmega168'
p681
sS'f_cpu'
p682
S'16000000L'
p683
sS'variant'
p684
S'eightanaloginputs'
p685
ssS'bootloader'
p686
(dp687
S'extended_fuses'
p688
S'0x00'
p689
sS'high_fuses'
p690
S'0xdd'
p691
sS'low_fuses'
p692
S'0xff'
p693
sS'lock_bits'
p694
S'0x0F'
p695
sS'file'
p696
S'ATmegaBOOT_168.hex'
p697
sS'path'
p698
S'bt'
p699
sS'unlock_bits'
p700
S'0x3F'
p701
ssS'upload'
p702
(dp703
S'protocol'
p704
S'arduino'
p705
sS'maximum_size'
p706
S'14336'
p707
sS'speed'
p708
S'19200'
p709
sS'disable_flushing'
p710
S'true'
p711
ssS'name'
p712
S'Arduino BT w/ ATmega168'
p713
saa(lp714
S'LilyPadUSB'
p715
a(dp716
S'build'
p717
(dp718
S'core'
p719
S'arduino'
p720
sS'f_cpu'
p721
S'8000000L'
p722
sS'vid'
p723
S'0x1B4F'
p724
sS'pid'
p725
S'0x9208'
p726
sS'variant'
p727
S'leonardo'
p728
sS'mcu'
p729
S'atmega32u4'
p730
ssS'bootloader'
p731
(dp732
S'extended_fuses'
p733
S'0xce'
p734
sS'high_fuses'
p735
S'0xd8'
p736
sS'low_fuses'
p737
S'0xff'
p738
sS'lock_bits'
p739
S'0x2F'
p740
sS'file'
p741
S'Caterina-LilyPadUSB.hex'
p742
sS'path'
p743
S'caterina-LilyPadUSB'
p744
sS'unlock_bits'
p745
S'0x3F'
p746
ssS'upload'
p747
(dp748
S'protocol'
p749
S'avr109'
p750
sS'maximum_size'
p751
S'28672'
p752
sS'speed'
p753
S'57600'
p754
sS'disable_flushing'
p755
S'true'
p756
ssS'name'
p757
S'LilyPad Arduino USB'
p758
saa(lp759
S'lilypad328'
p760
a(dp761
S'build'
p762
(dp763
S'core'
p764
S'arduino'
p765
sS'mcu'
p766
S'atmega328p'
p767
sS'f_cpu'
p768
S'8000000L'
p769
sS'variant'
p770
S'standard'
p771
ssS'bootloader'
p772
(dp773
S'extended_fuses'
p774
S'0x05'
p775
sS'high_fuses'
p776
S'0xDA'
p777
sS'low_fuses'
p778
S'0xFF'
p779
sS'lock_bits'
p780
S'0x0F'
p781
sS'file'
p782
S'ATmegaBOOT_168_atmega328_pro_8MHz.hex'
p783
sS'path'
p784
S'atmega'
p785
sS'unlock_bits'
p786
S'0x3F'
p787
ssS'upload'
p788
(dp789
S'protocol'
p790
S'arduino'
p791
sS'maximum_size'
p792
S'30720'
p793
sS'speed'
p794
S'57600'
p795
ssS'name'
p796
S'LilyPad Arduino w/ ATmega328'
p797
saa(lp798
S'lilypad'
p799
a(dp800
S'build'
p801
(dp802
S'core'
p803
S'arduino'
p804
sS'mcu'
p805
S'atmega168'
p806
sS'f_cpu'
p807
S'8000000L'
p808
sS'variant'
p809
S'standard'
p810
ssS'bootloader'
p811
(dp812
S'extended_fuses'
p813
S'0x00'
p814
sS'high_fuses'
p815
S'0xdd'
p816
sS'low_fuses'
p817
S'0xe2'
p818
sS'lock_bits'
p819
S'0x0F'
p820
sS'file'
p821
S'LilyPadBOOT_168.hex'
p822
sS'path'
p823
S'lilypad'
p824
sS'unlock_bits'
p825
S'0x3F'
p826
ssS'upload'
p827
(dp828
S'protocol'
p829
S'arduino'
p830
sS'maximum_size'
p831
S'14336'
p832
sS'speed'
p833
S'19200'
p834
ssS'name'
p835
S'LilyPad Arduino w/ ATmega168'
p836
saa(lp837
S'pro5v328'
p838
a(dp839
S'build'
p840
(dp841
S'core'
p842
S'arduino'
p843
sS'mcu'
p844
S'atmega328p'
p845
sS'f_cpu'
p846
S'16000000L'
p847
sS'variant'
p848
S'standard'
p849
ssS'bootloader'
p850
(dp851
S'extended_fuses'
p852
S'0x05'
p853
sS'high_fuses'
p854
S'0xDA'
p855
sS'low_fuses'
p856
S'0xFF'
p857
sS'lock_bits'
p858
S'0x0F'
p859
sS'file'
p860
S'ATmegaBOOT_168_atmega328.hex'
p861
sS'path'
p862
S'atmega'
p863
sS'unlock_bits'
p864
S'0x3F'
p865
ssS'upload'
p866
(dp867
S'protocol'
p868
S'arduino'
p869
sS'maximum_size'
p870
S'30720'
p871
sS'speed'
p872
S'57600'
p873
ssS'name'
p874
S'Arduino Pro or Pro Mini (5V, 16 MHz) w/ ATmega328'
p875
saa(lp876
S'pro5v'
p877
a(dp878
S'build'
p879
(dp880
S'core'
p881
S'arduino'
p882
sS'mcu'
p883
S'atmega168'
p884
sS'f_cpu'
p885
S'16000000L'
p886
sS'variant'
p887
S'standard'
p888
ssS'bootloader'
p889
(dp890
S'extended_fuses'
p891
S'0x00'
p892
sS'high_fuses'
p893
S'0xdd'
p894
sS'low_fuses'
p895
S'0xff'
p896
sS'lock_bits'
p897
S'0x0F'
p898
sS'file'
p899
S'ATmegaBOOT_168_diecimila.hex'
p900
sS'path'
p901
S'atmega'
p902
sS'unlock_bits'
p903
S'0x3F'
p904
ssS'upload'
p905
(dp906
S'protocol'
p907
S'arduino'
p908
sS'maximum_size'
p909
S'14336'
p910
sS'speed'
p911
S'19200'
p912
ssS'name'
p913
S'Arduino Pro or Pro Mini (5V, 16 MHz) w/ ATmega168'
p914
saa(lp915
S'pro328'
p916
a(dp917
S'build'
p918
(dp919
S'core'
p920
S'arduino'
p921
sS'mcu'
p922
S'atmega328p'
p923
sS'f_cpu'
p924
S'8000000L'
p925
sS'variant'
p926
S'standard'
p927
ssS'bootloader'
p928
(dp929
S'extended_fuses'
p930
S'0x05'
p931
sS'high_fuses'
p932
S'0xDA'
p933
sS'low_fuses'
p934
S'0xFF'
p935
sS'lock_bits'
p936
S'0x0F'
p937
sS'file'
p938
S'ATmegaBOOT_168_atmega328_pro_8MHz.hex'
p939
sS'path'
p940
S'atmega'
p941
sS'unlock_bits'
p942
S'0x3F'
p943
ssS'upload'
p944
(dp945
S'protocol'
p946
S'arduino'
p947
sS'maximum_size'
p948
S'30720'
p949
sS'speed'
p950
S'57600'
p951
ssS'name'
p952
S'Arduino Pro or Pro Mini (3.3V, 8 MHz) w/ ATmega328'
p953
saa(lp954
S'pro'
p955
a(dp956
S'build'
p957
(dp958
S'core'
p959
S'arduino'
p960
sS'mcu'
p961
S'atmega168'
p962
sS'f_cpu'
p963
S'8000000L'
p964
sS'variant'
p965
S'standard'
p966
ssS'bootloader'
p967
(dp968
S'extended_fuses'
p969
S'0x00'
p970
sS'high_fuses'
p971
S'0xdd'
p972
sS'low_fuses'
p973
S'0xc6'
p974
sS'lock_bits'
p975
S'0x0F'
p976
sS'file'
p977
S'ATmegaBOOT_168_pro_8MHz.hex'
p978
sS'path'
p979
S'atmega'
p980
sS'unlock_bits'
p981
S'0x3F'
p982
ssS'upload'
p983
(dp984
S'protocol'
p985
S'arduino'
p986
sS'maximum_size'
p987
S'14336'
p988
sS'speed'
p989
S'19200'
p990
ssS'name'
p991
S'Arduino Pro or Pro Mini (3.3V, 8 MHz) w/ ATmega168'
p992
saa(lp993
S'atmega168'
p994
a(dp995
S'build'
p996
(dp997
S'core'
p998
S'arduino'
p999
sS'mcu'
p1000
S'atmega168'
p1001
sS'f_cpu'
p1002
S'16000000L'
p1003
sS'variant'
p1004
S'standard'
p1005
ssS'bootloader'
p1006
(dp1007
S'extended_fuses'
p1008
S'0x00'
p1009
sS'high_fuses'
p1010
S'0xdd'
p1011
sS'low_fuses'
p1012
S'0xff'
p1013
sS'lock_bits'
p1014
S'0x0F'
p1015
sS'file'
p1016
S'ATmegaBOOT_168_ng.hex'
p1017
sS'path'
p1018
S'atmega'
p1019
sS'unlock_bits'
p1020
S'0x3F'
p1021
ssS'upload'
p1022
(dp1023
S'protocol'
p1024
S'arduino'
p1025
sS'maximum_size'
p1026
S'14336'
p1027
sS'speed'
p1028
S'19200'
p1029
ssS'name'
p1030
S'Arduino NG or older w/ ATmega168'
p1031
saa(lp1032
S'atmega8'
p1033
a(dp1034
S'build'
p1035
(dp1036
S'core'
p1037
S'arduino'
p1038
sS'mcu'
p1039
S'atmega8'
p1040
sS'f_cpu'
p1041
S'16000000L'
p1042
sS'variant'
p1043
S'standard'
p1044
ssS'bootloader'
p1045
(dp1046
S'high_fuses'
p1047
S'0xca'
p1048
sS'low_fuses'
p1049
S'0xdf'
p1050
sS'lock_bits'
p1051
S'0x0F'
p1052
sS'file'
p1053
S'ATmegaBOOT-prod-firmware-2009-11-07.hex'
p1054
sS'path'
p1055
S'atmega8'
p1056
sS'unlock_bits'
p1057
S'0x3F'
p1058
ssS'upload'
p1059
(dp1060
S'protocol'
p1061
S'arduino'
p1062
sS'maximum_size'
p1063
S'7168'
p1064
sS'speed'
p1065
S'19200'
p1066
ssS'name'
p1067
S'Arduino NG or older w/ ATmega8'
p1068
saa(lp1069
S'robotControl'
p1070
a(dp1071
S'build'
p1072
(dp1073
S'core'
p1074
S'robot'
p1075
sS'f_cpu'
p1076
S'16000000L'
p1077
sS'vid'
p1078
S'0x2341'
p1079
sS'pid'
p1080
S'0x8038'
p1081
sS'variant'
p1082
S'robot_control'
p1083
sS'mcu'
p1084
S'atmega32u4'
p1085
ssS'bootloader'
p1086
(dp1087
S'extended_fuses'
p1088
S'0xcb'
p1089
sS'high_fuses'
p1090
S'0xd8'
p1091
sS'low_fuses'
p1092
S'0xff'
p1093
sS'lock_bits'
p1094
S'0x2F'
p1095
sS'file'
p1096
S'Caterina-Robot-Control.hex'
p1097
sS'path'
p1098
S'caterina-Arduino_Robot'
p1099
sS'unlock_bits'
p1100
S'0x3F'
p1101
ssS'upload'
p1102
(dp1103
S'protocol'
p1104
S'avr109'
p1105
sS'maximum_size'
p1106
S'28672'
p1107
sS'speed'
p1108
S'57600'
p1109
sS'disable_flushing'
p1110
S'true'
p1111
ssS'name'
p1112
S'Arduino Robot Control'
p1113
saa(lp1114
S'robotMotor'
p1115
a(dp1116
S'build'
p1117
(dp1118
S'core'
p1119
S'robot'
p1120
sS'f_cpu'
p1121
S'16000000L'
p1122
sS'vid'
p1123
S'0x2341'
p1124
sS'pid'
p1125
S'0x8039'
p1126
sS'variant'
p1127
S'robot_motor'
p1128
sS'mcu'
p1129
S'atmega32u4'
p1130
ssS'bootloader'
p1131
(dp1132
S'extended_fuses'
p1133
S'0xcb'
p1134
sS'high_fuses'
p1135
S'0xd8'
p1136
sS'low_fuses'
p1137
S'0xff'
p1138
sS'lock_bits'
p1139
S'0x2F'
p1140
sS'file'
p1141
S'Caterina-Robot-Motor.hex'
p1142
sS'path'
p1143
S'caterina-Arduino_Robot'
p1144
sS'unlock_bits'
p1145
S'0x3F'
p1146
ssS'upload'
p1147
(dp1148
S'protocol'
p1149
S'avr109'
p1150
sS'maximum_size'
p1151
S'28672'
p1152
sS'speed'
p1153
S'57600'
p1154
sS'disable_flushing'
p1155
S'true'
p1156
ssS'name'
p1157
S'Arduino Robot Motor'
p1158
saatp1159
Rp1160
(dp1161
S'default'
p1162
S'uno'
p1163
sbtp1164
a(S'used_libs'
p1165
(lp1166
S'/usr/share/arduino/libraries/Servo'
p1167
aS'/usr/share/arduino/libraries/EEPROM'
p1168
aS'/usr/share/arduino/libraries/Wire'
p1169
aS'/usr/share/arduino/hardware/arduino/cores/arduino'
p1170
atp1171
a(S'make'
p1172
S'/usr/bin/make'
p1173
tp1174
a(S'build_dir'
p1175
S'.build/pro5v328'
p1176
tp1177
a(S'cxx'
p1178
S'/usr/share/arduino/hardware/tools/avr/bin/avr-g++'
p1179
tp1180
a(S'cflags'
p1181
g2
(g3
g4
(lp1182
tp1183
Rp1184
tp1185
a(S'cxxflags'
p1186
g2
(g3
g4
(lp1187
S'-fno-exceptions'
p1188
atp1189
Rp1190
tp1191
a(S'arduino_variants_dir'
p1192
S'/usr/share/arduino/hardware/arduino/variants'
p1193
tp1194
a(S'stty'
p1195
S'/usr/bin/stty'
p1196
tp1197
a(S'version.txt'
p1198
S'/usr/share/arduino/lib/version.txt'
p1199
tp1200
a(S'arduino_core_dir'
p1201
g1170
tp1202
a(S'boards.txt'
p1203
S'/usr/share/arduino/hardware/arduino/boards.txt'
p1204
tp1205
a(S'avrdude.conf'
p1206
S'/usr/share/arduino/hardware/tools/avrdude.conf'
p1207
tp1208
a(g43
g2
(g3
g4
(lp1209
S'.build/pro5v328/src/dependencies.d'
p1210
aS'.build/pro5v328/arduino/dependencies.d'
p1211
aS'.build/pro5v328/Servo/dependencies.d'
p1212
aS'.build/pro5v328/EEPROM/dependencies.d'
p1213
aS'.build/pro5v328/Wire/dependencies.d'
p1214
atp1215
Rp1216
tp1217
a.